target datalayout = "e-m:e-p270:32:32-p271:32:32-p272:64:64-i64:64-i128:128-f80:128-n8:16:32:64-S128"
target triple = "x86_64-unknown-linux-gnu"

%"class.node::MutexBase" = type { %union.pthread_mutex_t }
%union.pthread_mutex_t = type { %struct.__pthread_mutex_s }
%struct.__pthread_mutex_s = type { i32, i32, i32, i32, i32, i16, i16, %struct.__pthread_internal_list }
%struct.__pthread_internal_list = type { ptr, ptr }
%"class.node::MemoryRetainer" = type { ptr }
%"class.std::__shared_count" = type { ptr }
%"class.node::worker::MessagePortData" = type { %"class.node::worker::TransferData", %"class.node::MutexBase", %"class.std::deque.363", ptr, %"class.std::shared_ptr.369" }
%"class.node::worker::TransferData" = type { %"class.node::MemoryRetainer" }
%"class.std::deque.363" = type { %"class.std::_Deque_base.364" }
%"class.std::_Deque_base.364" = type { %"struct.std::_Deque_base<std::shared_ptr<node::worker::Message>, std::allocator<std::shared_ptr<node::worker::Message>>>::_Deque_impl" }
%"struct.std::_Deque_base<std::shared_ptr<node::worker::Message>, std::allocator<std::shared_ptr<node::worker::Message>>>::_Deque_impl" = type { %"struct.std::_Deque_base<std::shared_ptr<node::worker::Message>, std::allocator<std::shared_ptr<node::worker::Message>>>::_Deque_impl_data" }
%"struct.std::_Deque_base<std::shared_ptr<node::worker::Message>, std::allocator<std::shared_ptr<node::worker::Message>>>::_Deque_impl_data" = type { ptr, i64, %"struct.std::_Deque_iterator.368", %"struct.std::_Deque_iterator.368" }
%"struct.std::_Deque_iterator.368" = type { ptr, ptr, ptr, ptr }
%"class.std::shared_ptr.369" = type { %"class.std::__shared_ptr.370" }
%"class.std::__shared_ptr.370" = type { ptr, %"class.std::__shared_count" }

; Function Attrs: mustprogress nounwind uwtable
define linkonce_odr dso_local noundef ptr @_ZNKSt12__shared_ptrIN4node6worker12SiblingGroupELN9__gnu_cxx12_Lock_policyE2EE3getEv(ptr noundef nonnull align 8 dereferenceable(16) %this) #4 comdat align 2 {
entry:
  %this.addr = alloca ptr, align 8
  store ptr %this, ptr %this.addr, align 8
  %this1 = load ptr, ptr %this.addr, align 8
  %_M_ptr = getelementptr inbounds %"class.std::__shared_ptr.370", ptr %this1, i32 0, i32 0
  %0 = load ptr, ptr %_M_ptr, align 8
  ret ptr %0
}

; Function Attrs: mustprogress nounwind uwtable
define linkonce_odr dso_local noundef ptr @_ZNKSt19__shared_ptr_accessIN4node6worker12SiblingGroupELN9__gnu_cxx12_Lock_policyE2ELb0ELb0EE6_M_getEv(ptr noundef nonnull align 1 dereferenceable(1) %this) #4 comdat align 2 {
entry:
  %this.addr = alloca ptr, align 8
  store ptr %this, ptr %this.addr, align 8
  %this1 = load ptr, ptr %this.addr, align 8
  %call = call noundef ptr @_ZNKSt12__shared_ptrIN4node6worker12SiblingGroupELN9__gnu_cxx12_Lock_policyE2EE3getEv(ptr noundef nonnull align 8 dereferenceable(16) %this1) #3
  ret ptr %call
}

; Function Attrs: mustprogress nounwind uwtable
define linkonce_odr dso_local noundef ptr @_ZNKSt19__shared_ptr_accessIN4node6worker12SiblingGroupELN9__gnu_cxx12_Lock_policyE2ELb0ELb0EEptEv(ptr noundef nonnull align 1 dereferenceable(1) %this) #4 comdat align 2 {
entry:
  %this.addr = alloca ptr, align 8
  store ptr %this, ptr %this.addr, align 8
  %this1 = load ptr, ptr %this.addr, align 8
  %call = call noundef ptr @_ZNKSt19__shared_ptr_accessIN4node6worker12SiblingGroupELN9__gnu_cxx12_Lock_policyE2ELb0ELb0EE6_M_getEv(ptr noundef nonnull align 1 dereferenceable(1) %this1) #3
  ret ptr %call
}

; Function Attrs: mustprogress nounwind uwtable
define linkonce_odr dso_local noundef zeroext i1 @_ZNKSt12__shared_ptrIN4node6worker12SiblingGroupELN9__gnu_cxx12_Lock_policyE2EEcvbEv(ptr noundef nonnull align 8 dereferenceable(16) %this) #4 comdat align 2 {
entry:
  %this.addr = alloca ptr, align 8
  store ptr %this, ptr %this.addr, align 8
  %this1 = load ptr, ptr %this.addr, align 8
  %_M_ptr = getelementptr inbounds %"class.std::__shared_ptr.370", ptr %this1, i32 0, i32 0
  %0 = load ptr, ptr %_M_ptr, align 8
  %cmp = icmp ne ptr %0, null
  ret i1 %cmp
}

; Function Attrs: mustprogress nounwind uwtable
define dso_local void @_ZN4node6worker15MessagePortData11DisentangleEv(ptr noundef nonnull align 8 dereferenceable(152) %this) #4 align 2 {
entry:
  %this.addr = alloca ptr, align 8
  store ptr %this, ptr %this.addr, align 8
  %this1 = load ptr, ptr %this.addr, align 8
  %group_ = getelementptr inbounds %"class.node::worker::MessagePortData", ptr %this1, i32 0, i32 4
  %call = call noundef zeroext i1 @_ZNKSt12__shared_ptrIN4node6worker12SiblingGroupELN9__gnu_cxx12_Lock_policyE2EEcvbEv(ptr noundef nonnull align 8 dereferenceable(16) %group_) #3
  br i1 %call, label %if.then, label %if.end

if.then:                                          ; preds = %entry
  %group_2 = getelementptr inbounds %"class.node::worker::MessagePortData", ptr %this1, i32 0, i32 4
  %call3 = call noundef ptr @_ZNKSt19__shared_ptr_accessIN4node6worker12SiblingGroupELN9__gnu_cxx12_Lock_policyE2ELb0ELb0EEptEv(ptr noundef nonnull align 1 dereferenceable(1) %group_2) #3
  call void @_ZN4node6worker12SiblingGroup11DisentangleEPNS0_15MessagePortDataE(ptr noundef nonnull align 8 dereferenceable(152) %call3, ptr noundef %this1)
  br label %if.end

if.end:                                           ; preds = %if.then, %entry
  ret void
}