; Function Attrs: mustprogress nounwind uwtable
define dso_local void @_ZN4node6worker15MessagePortData11DisentangleEv(ptr noundef nonnull align 8 dereferenceable(152) %this) local_unnamed_addr #6 align 2 {
entry:
  %group_ = getelementptr inbounds i8, ptr %this, i64 136
  %0 = load ptr, ptr %group_, align 8
  %cmp.i.not = icmp eq ptr %0, null
  br i1 %cmp.i.not, label %if.end, label %if.then

if.then:                                          ; preds = %entry
  tail call void @_ZN4node6worker12SiblingGroup11DisentangleEPNS0_15MessagePortDataE(ptr noundef nonnull align 8 dereferenceable(152) %0, ptr noundef nonnull %this)
  br label %if.end

if.end:                                           ; preds = %if.then, %entry
  ret void
}